target datalayout = "e-m:e-p270:32:32-p271:32:32-p272:64:64-i64:64-i128:128-f80:128-n8:16:32:64-S128"
target triple = "x86_64-pc-linux-gnu"

%struct.Parser = type { ptr, ptr, i32, i32, i32, ptr, ptr, ptr, i32, i32, ptr, i32, ptr, i32, i32, i32, i32, i32, %struct.growable_comment_array, ptr, i32, i32, i32 }
%struct.growable_comment_array = type { ptr, i64, i64 }
%struct._memo = type { i32, ptr, i32, ptr }
%struct.Token = type { i32, ptr, i32, i32, i32, i32, i32, ptr, ptr }

; Function Attrs: nounwind uwtable
define hidden i32 @_PyPegen_is_memoized(ptr noundef %0, i32 noundef %1, ptr noundef %2) #0 {
  %4 = alloca i32, align 4
  %5 = alloca ptr, align 8
  %6 = alloca i32, align 4
  %7 = alloca ptr, align 8
  %8 = alloca ptr, align 8
  %9 = alloca ptr, align 8
  %10 = alloca i32, align 4
  store ptr %0, ptr %5, align 8, !tbaa !4
  store i32 %1, ptr %6, align 4, !tbaa !18
  store ptr %2, ptr %7, align 8, !tbaa !4
  %11 = load ptr, ptr %5, align 8, !tbaa !4
  %12 = getelementptr inbounds nuw %struct.Parser, ptr %11, i32 0, i32 2
  %13 = load i32, ptr %12, align 8, !tbaa !38
  %14 = load ptr, ptr %5, align 8, !tbaa !4
  %15 = getelementptr inbounds nuw %struct.Parser, ptr %14, i32 0, i32 3
  %16 = load i32, ptr %15, align 4, !tbaa !59
  %17 = icmp eq i32 %13, %16
  br i1 %17, label %18, label %26

18:                                               ; preds = %3
  %19 = load ptr, ptr %5, align 8, !tbaa !4
  %20 = call i32 @_PyPegen_fill_token(ptr noundef %19)
  %21 = icmp slt i32 %20, 0
  br i1 %21, label %22, label %25

22:                                               ; preds = %18
  %23 = load ptr, ptr %5, align 8, !tbaa !4
  %24 = getelementptr inbounds nuw %struct.Parser, ptr %23, i32 0, i32 15
  store i32 1, ptr %24, align 8, !tbaa !86
  store i32 -1, ptr %4, align 4
  br label %68

25:                                               ; preds = %18
  br label %26

26:                                               ; preds = %25, %3
  call void @llvm.lifetime.start.p0(i64 8, ptr %8) #10
  %27 = load ptr, ptr %5, align 8, !tbaa !4
  %28 = getelementptr inbounds nuw %struct.Parser, ptr %27, i32 0, i32 1
  %29 = load ptr, ptr %28, align 8, !tbaa !40
  %30 = load ptr, ptr %5, align 8, !tbaa !4
  %31 = getelementptr inbounds nuw %struct.Parser, ptr %30, i32 0, i32 2
  %32 = load i32, ptr %31, align 8, !tbaa !38
  %33 = sext i32 %32 to i64
  %34 = getelementptr ptr, ptr %29, i64 %33
  %35 = load ptr, ptr %34, align 8, !tbaa !4
  store ptr %35, ptr %8, align 8, !tbaa !4
  call void @llvm.lifetime.start.p0(i64 8, ptr %9) #10
  %36 = load ptr, ptr %8, align 8, !tbaa !4
  %37 = getelementptr inbounds nuw %struct.Token, ptr %36, i32 0, i32 7
  %38 = load ptr, ptr %37, align 8, !tbaa !41
  store ptr %38, ptr %9, align 8, !tbaa !33
  br label %39

39:                                               ; preds = %60, %26
  %40 = load ptr, ptr %9, align 8, !tbaa !33
  %41 = icmp ne ptr %40, null
  br i1 %41, label %43, label %42

42:                                               ; preds = %39
  store i32 2, ptr %10, align 4
  br label %64

43:                                               ; preds = %39
  %44 = load ptr, ptr %9, align 8, !tbaa !33
  %45 = getelementptr inbounds nuw %struct._memo, ptr %44, i32 0, i32 0
  %46 = load i32, ptr %45, align 8, !tbaa !35
  %47 = load i32, ptr %6, align 4, !tbaa !18
  %48 = icmp eq i32 %46, %47
  br i1 %48, label %49, label %59

49:                                               ; preds = %43
  %50 = load ptr, ptr %9, align 8, !tbaa !33
  %51 = getelementptr inbounds nuw %struct._memo, ptr %50, i32 0, i32 2
  %52 = load i32, ptr %51, align 8, !tbaa !39
  %53 = load ptr, ptr %5, align 8, !tbaa !4
  %54 = getelementptr inbounds nuw %struct.Parser, ptr %53, i32 0, i32 2
  store i32 %52, ptr %54, align 8, !tbaa !38
  %55 = load ptr, ptr %9, align 8, !tbaa !33
  %56 = getelementptr inbounds nuw %struct._memo, ptr %55, i32 0, i32 1
  %57 = load ptr, ptr %56, align 8, !tbaa !37
  %58 = load ptr, ptr %7, align 8, !tbaa !4
  store ptr %57, ptr %58, align 8, !tbaa !4
  store i32 1, ptr %4, align 4
  store i32 1, ptr %10, align 4
  br label %64

59:                                               ; preds = %43
  br label %60

60:                                               ; preds = %59
  %61 = load ptr, ptr %9, align 8, !tbaa !33
  %62 = getelementptr inbounds nuw %struct._memo, ptr %61, i32 0, i32 3
  %63 = load ptr, ptr %62, align 8, !tbaa !43
  store ptr %63, ptr %9, align 8, !tbaa !33
  br label %39, !llvm.loop !87

64:                                               ; preds = %49, %42
  call void @llvm.lifetime.end.p0(i64 8, ptr %9) #10
  %65 = load i32, ptr %10, align 4
  switch i32 %65, label %67 [
    i32 2, label %66
  ]

66:                                               ; preds = %64
  store i32 0, ptr %4, align 4
  store i32 1, ptr %10, align 4
  br label %67

67:                                               ; preds = %66, %64
  call void @llvm.lifetime.end.p0(i64 8, ptr %8) #10
  br label %68

68:                                               ; preds = %67, %22
  %69 = load i32, ptr %4, align 4
  ret i32 %69
}