; Function Attrs: nounwind uwtable
define hidden range(i32 -1, 2) i32 @_PyPegen_is_memoized(ptr noundef %0, i32 noundef %1, ptr noundef writeonly captures(none) %2) local_unnamed_addr #1 {
  %4 = getelementptr inbounds nuw i8, ptr %0, i64 16
  %5 = load i32, ptr %4, align 8, !tbaa !33
  %6 = getelementptr inbounds nuw i8, ptr %0, i64 20
  %7 = load i32, ptr %6, align 4, !tbaa !62
  %8 = icmp eq i32 %5, %7
  br i1 %8, label %9, label %14

9:                                                ; preds = %3
  %10 = tail call i32 @_PyPegen_fill_token(ptr noundef nonnull %0)
  %11 = icmp slt i32 %10, 0
  br i1 %11, label %12, label %._crit_edge

._crit_edge:                                      ; preds = %9
  %.pre = load i32, ptr %4, align 8, !tbaa !33
  br label %14

12:                                               ; preds = %9
  %13 = getelementptr inbounds nuw i8, ptr %0, i64 96
  store i32 1, ptr %13, align 8, !tbaa !87
  br label %.loopexit

14:                                               ; preds = %._crit_edge, %3
  %15 = phi i32 [ %.pre, %._crit_edge ], [ %5, %3 ]
  %16 = getelementptr inbounds nuw i8, ptr %0, i64 8
  %17 = load ptr, ptr %16, align 8, !tbaa !35
  %18 = sext i32 %15 to i64
  %19 = getelementptr ptr, ptr %17, i64 %18
  %20 = load ptr, ptr %19, align 8, !tbaa !36
  %21 = getelementptr inbounds nuw i8, ptr %20, i64 40
  %.01621 = load ptr, ptr %21, align 8, !tbaa !40
  %.not22.not = icmp eq ptr %.01621, null
  br i1 %.not22.not, label %.loopexit, label %.lr.ph

.lr.ph:                                           ; preds = %14, %29
  %.01623 = phi ptr [ %.016, %29 ], [ %.01621, %14 ]
  %22 = load i32, ptr %.01623, align 8, !tbaa !29
  %23 = icmp eq i32 %22, %1
  br i1 %23, label %24, label %29

24:                                               ; preds = %.lr.ph
  %25 = getelementptr inbounds nuw i8, ptr %.01623, i64 16
  %26 = load i32, ptr %25, align 8, !tbaa !34
  store i32 %26, ptr %4, align 8, !tbaa !33
  %27 = getelementptr inbounds nuw i8, ptr %.01623, i64 8
  %28 = load ptr, ptr %27, align 8, !tbaa !32
  store ptr %28, ptr %2, align 8, !tbaa !36
  br label %.loopexit

29:                                               ; preds = %.lr.ph
  %30 = getelementptr inbounds nuw i8, ptr %.01623, i64 24
  %.016 = load ptr, ptr %30, align 8, !tbaa !40
  %.not.not = icmp eq ptr %.016, null
  br i1 %.not.not, label %.loopexit, label %.lr.ph, !llvm.loop !88

.loopexit:                                        ; preds = %29, %24, %14, %12
  %.017 = phi i32 [ -1, %12 ], [ 1, %24 ], [ 0, %14 ], [ 0, %29 ]
  ret i32 %.017
}